target datalayout = "e-m:e-p270:32:32-p271:32:32-p272:64:64-i64:64-i128:128-f80:128-n8:16:32:64-S128"
target triple = "x86_64-pc-linux-gnu"

%struct.stat = type { i64, i64, i64, i32, i32, i32, i32, i64, i64, i64, i64, %struct.timespec, %struct.timespec, %struct.timespec, [3 x i64] }
%struct.timespec = type { i64, i64 }

@fskip_ahead.dump = internal global [8192 x i8] zeroinitializer, align 16

; Function Attrs: alwaysinline
define internal i64 @fread.inline(ptr noalias %0, i64 %1, i64 %2, ptr noalias %3) #6 {
  %5 = alloca i64, align 8
  %6 = alloca ptr, align 8
  %7 = alloca i64, align 8
  %8 = alloca i64, align 8
  %9 = alloca ptr, align 8
  %10 = alloca i64, align 8
  %11 = alloca i32, align 4
  store ptr %0, ptr %6, align 8, !tbaa !48
  store i64 %1, ptr %7, align 8, !tbaa !9
  store i64 %2, ptr %8, align 8, !tbaa !9
  store ptr %3, ptr %9, align 8, !tbaa !4
  call void @llvm.lifetime.start.p0(i64 8, ptr %10) #14
  %12 = load ptr, ptr %6, align 8, !tbaa !48
  %13 = call i64 @llvm.objectsize.i64.p0(ptr %12, i1 false, i1 true, i1 false)
  store i64 %13, ptr %10, align 8, !tbaa !9
  %14 = load i64, ptr %8, align 8, !tbaa !9
  %15 = load i64, ptr %10, align 8, !tbaa !9
  %16 = load i64, ptr %7, align 8, !tbaa !9
  %17 = udiv i64 %15, %16
  %18 = icmp ule i64 %14, %17
  %19 = zext i1 %18 to i32
  %20 = call i1 @llvm.is.constant.i32(i32 %19)
  br i1 %20, label %21, label %33

21:                                               ; preds = %4
  %22 = load i64, ptr %8, align 8, !tbaa !9
  %23 = load i64, ptr %10, align 8, !tbaa !9
  %24 = load i64, ptr %7, align 8, !tbaa !9
  %25 = udiv i64 %23, %24
  %26 = icmp ule i64 %22, %25
  br i1 %26, label %27, label %33

27:                                               ; preds = %21
  %28 = load ptr, ptr %6, align 8, !tbaa !48
  %29 = load i64, ptr %7, align 8, !tbaa !9
  %30 = load i64, ptr %8, align 8, !tbaa !9
  %31 = load ptr, ptr %9, align 8, !tbaa !4
  %32 = call i64 @fread(ptr noundef %28, i64 noundef %29, i64 noundef %30, ptr noundef %31)
  store i64 %32, ptr %5, align 8
  store i32 1, ptr %11, align 4
  br label %61

33:                                               ; preds = %21, %4
  %34 = load i64, ptr %8, align 8, !tbaa !9
  %35 = load i64, ptr %10, align 8, !tbaa !9
  %36 = load i64, ptr %7, align 8, !tbaa !9
  %37 = udiv i64 %35, %36
  %38 = icmp ule i64 %34, %37
  %39 = zext i1 %38 to i32
  %40 = call i1 @llvm.is.constant.i32(i32 %39)
  br i1 %40, label %41, label %54

41:                                               ; preds = %33
  %42 = load i64, ptr %8, align 8, !tbaa !9
  %43 = load i64, ptr %10, align 8, !tbaa !9
  %44 = load i64, ptr %7, align 8, !tbaa !9
  %45 = udiv i64 %43, %44
  %46 = icmp ule i64 %42, %45
  br i1 %46, label %54, label %47

47:                                               ; preds = %41
  %48 = load ptr, ptr %6, align 8, !tbaa !48
  %49 = load i64, ptr %10, align 8, !tbaa !9
  %50 = load i64, ptr %7, align 8, !tbaa !9
  %51 = load i64, ptr %8, align 8, !tbaa !9
  %52 = load ptr, ptr %9, align 8, !tbaa !4
  %53 = call i64 @__fread_chk(ptr noundef %48, i64 noundef %49, i64 noundef %50, i64 noundef %51, ptr noundef %52)
  store i64 %53, ptr %5, align 8
  store i32 1, ptr %11, align 4
  br label %61

54:                                               ; preds = %41, %33
  %55 = load ptr, ptr %6, align 8, !tbaa !48
  %56 = load i64, ptr %10, align 8, !tbaa !9
  %57 = load i64, ptr %7, align 8, !tbaa !9
  %58 = load i64, ptr %8, align 8, !tbaa !9
  %59 = load ptr, ptr %9, align 8, !tbaa !4
  %60 = call i64 @__fread_chk(ptr noundef %55, i64 noundef %56, i64 noundef %57, i64 noundef %58, ptr noundef %59)
  store i64 %60, ptr %5, align 8
  store i32 1, ptr %11, align 4
  br label %61

61:                                               ; preds = %54, %47, %27
  call void @llvm.lifetime.end.p0(i64 8, ptr %10) #14
  %62 = load i64, ptr %5, align 8
  ret i64 %62
}

; Function Attrs: nounwind sspstrong uwtable
define internal i32 @fskip_ahead(ptr noundef %0, i64 noundef %1) #0 {
  %3 = alloca i32, align 4
  %4 = alloca ptr, align 8
  %5 = alloca i64, align 8
  %6 = alloca %struct.stat, align 8
  %7 = alloca i32, align 4
  %8 = alloca i64, align 8
  store ptr %0, ptr %4, align 8, !tbaa !4
  store i64 %1, ptr %5, align 8, !tbaa !9
  call void @llvm.lifetime.start.p0(i64 144, ptr %6) #14
  %9 = load i64, ptr %5, align 8, !tbaa !9
  %10 = icmp ugt i64 %9, 9223372036854775807
  br i1 %10, label %11, label %12

11:                                               ; preds = %2
  store i32 0, ptr %3, align 4
  store i32 1, ptr %7, align 4
  br label %55

12:                                               ; preds = %2
  %13 = load ptr, ptr %4, align 8, !tbaa !4
  %14 = call i32 @fileno(ptr noundef %13) #14
  %15 = call i32 @fstat64(i32 noundef %14, ptr noundef %6) #14
  %16 = icmp eq i32 %15, 0
  br i1 %16, label %17, label %29

17:                                               ; preds = %12
  %18 = getelementptr inbounds nuw %struct.stat, ptr %6, i32 0, i32 3
  %19 = load i32, ptr %18, align 8, !tbaa !131
  %20 = and i32 %19, 61440
  %21 = icmp eq i32 %20, 32768
  br i1 %21, label %22, label %29

22:                                               ; preds = %17
  %23 = load ptr, ptr %4, align 8, !tbaa !4
  %24 = load i64, ptr %5, align 8, !tbaa !9
  %25 = call i32 @fseeko64(ptr noundef %23, i64 noundef %24, i32 noundef 1)
  %26 = icmp eq i32 %25, 0
  br i1 %26, label %27, label %28

27:                                               ; preds = %22
  store i32 1, ptr %3, align 4
  store i32 1, ptr %7, align 4
  br label %55

28:                                               ; preds = %22
  br label %29

29:                                               ; preds = %28, %17, %12
  br label %30

30:                                               ; preds = %53, %29
  %31 = load i64, ptr %5, align 8, !tbaa !9
  %32 = icmp ugt i64 %31, 0
  br i1 %32, label %33, label %54

33:                                               ; preds = %30
  call void @llvm.lifetime.start.p0(i64 8, ptr %8) #14
  %34 = load i64, ptr %5, align 8, !tbaa !9
  %35 = icmp ult i64 %34, 8192
  br i1 %35, label %36, label %38

36:                                               ; preds = %33
  %37 = load i64, ptr %5, align 8, !tbaa !9
  br label %39

38:                                               ; preds = %33
  br label %39

39:                                               ; preds = %38, %36
  %40 = phi i64 [ %37, %36 ], [ 8192, %38 ]
  store i64 %40, ptr %8, align 8, !tbaa !9
  %41 = load i64, ptr %8, align 8, !tbaa !9
  %42 = load ptr, ptr %4, align 8, !tbaa !4
  %43 = call i64 @fread.inline(ptr noundef @fskip_ahead.dump, i64 noundef 1, i64 noundef %41, ptr noundef %42)
  %44 = load i64, ptr %8, align 8, !tbaa !9
  %45 = icmp slt i64 %43, %44
  br i1 %45, label %46, label %47

46:                                               ; preds = %39
  store i32 0, ptr %3, align 4
  store i32 1, ptr %7, align 4
  br label %51

47:                                               ; preds = %39
  %48 = load i64, ptr %8, align 8, !tbaa !9
  %49 = load i64, ptr %5, align 8, !tbaa !9
  %50 = sub i64 %49, %48
  store i64 %50, ptr %5, align 8, !tbaa !9
  store i32 0, ptr %7, align 4
  br label %51

51:                                               ; preds = %47, %46
  call void @llvm.lifetime.end.p0(i64 8, ptr %8) #14
  %52 = load i32, ptr %7, align 4
  switch i32 %52, label %55 [
    i32 0, label %53
  ]

53:                                               ; preds = %51
  br label %30, !llvm.loop !134

54:                                               ; preds = %30
  store i32 1, ptr %3, align 4
  store i32 1, ptr %7, align 4
  br label %55

55:                                               ; preds = %54, %51, %27, %11
  call void @llvm.lifetime.end.p0(i64 144, ptr %6) #14
  %56 = load i32, ptr %3, align 4
  ret i32 %56
}