; Function Attrs: nounwind sspstrong uwtable
define internal fastcc range(i32 0, 2) i32 @fskip_ahead(ptr noundef %0, i64 noundef %1) unnamed_addr #0 {
  %3 = alloca %struct.stat, align 8
  call void @llvm.lifetime.start.p0(i64 144, ptr nonnull %3) #20
  %4 = icmp slt i64 %1, 0
  br i1 %4, label %.loopexit, label %5

5:                                                ; preds = %2
  %6 = tail call i32 @fileno(ptr noundef %0) #20
  %7 = call i32 @fstat64(i32 noundef %6, ptr noundef nonnull %3) #20
  %8 = icmp eq i32 %7, 0
  br i1 %8, label %9, label %.preheader

9:                                                ; preds = %5
  %10 = getelementptr inbounds nuw i8, ptr %3, i64 24
  %11 = load i32, ptr %10, align 8, !tbaa !53
  %12 = and i32 %11, 61440
  %13 = icmp eq i32 %12, 32768
  br i1 %13, label %14, label %.preheader

14:                                               ; preds = %9
  %15 = tail call i32 @fseeko64(ptr noundef %0, i64 noundef %1, i32 noundef 1)
  %16 = icmp eq i32 %15, 0
  br i1 %16, label %.loopexit, label %.preheader

.preheader:                                       ; preds = %14, %9, %5
  br label %17

17:                                               ; preds = %.preheader, %fread.inline.exit
  %.014 = phi i64 [ %20, %fread.inline.exit ], [ %1, %.preheader ]
  %.not = icmp eq i64 %.014, 0
  br i1 %.not, label %.loopexit, label %fread.inline.exit

fread.inline.exit:                                ; preds = %17
  %18 = tail call i64 @llvm.umin.i64(i64 %.014, i64 8192)
  %19 = tail call i64 @fread(ptr noundef nonnull @fskip_ahead.dump, i64 noundef 1, i64 noundef %18, ptr noundef %0)
  %.not18 = icmp slt i64 %19, %18
  %20 = sub i64 %.014, %18
  br i1 %.not18, label %.loopexit, label %17, !llvm.loop !56

.loopexit:                                        ; preds = %17, %fread.inline.exit, %14, %2
  %.0 = phi i32 [ 0, %2 ], [ 1, %14 ], [ 1, %17 ], [ 0, %fread.inline.exit ]
  call void @llvm.lifetime.end.p0(i64 144, ptr nonnull %3) #20
  ret i32 %.0
}